; ModuleID = '19/236.c'
source_filename = "19/236.c"
target datalayout = "e-m:e-p270:32:32-p271:32:32-p272:64:64-i64:64-f80:128-n8:16:32:64-S128"
target triple = "x86_64-pc-linux-gnu"

@.str = private unnamed_addr constant [3 x i8] c"%s\00", align 1
@.str.1 = private unnamed_addr constant [2 x i8] c" \00", align 1

; Function Attrs: noinline nounwind uwtable
define dso_local i32 @main() #0 {
  %1 = alloca i32, align 4
  %2 = alloca [150 x i8], align 16
  %3 = alloca [150 x i8], align 16
  %4 = alloca [150 x i8], align 16
  %5 = alloca [50 x i8], align 16
  %6 = alloca i8*, align 8
  %7 = alloca i32, align 4
  store i32 0, i32* %1, align 4
  %8 = getelementptr inbounds [150 x i8], [150 x i8]* %2, i64 0, i64 0
  store i8* %8, i8** %6, align 8
  %9 = getelementptr inbounds [150 x i8], [150 x i8]* %2, i64 0, i64 0
  %10 = call i32 (i8*, ...) bitcast (i32 (...)* @gets to i32 (i8*, ...)*)(i8* %9)
  %11 = getelementptr inbounds [150 x i8], [150 x i8]* %3, i64 0, i64 0
  %12 = call i32 (i8*, ...) bitcast (i32 (...)* @gets to i32 (i8*, ...)*)(i8* %11)
  %13 = getelementptr inbounds [150 x i8], [150 x i8]* %4, i64 0, i64 0
  %14 = call i32 (i8*, ...) bitcast (i32 (...)* @gets to i32 (i8*, ...)*)(i8* %13)
  br label %15

15:                                               ; preds = %65, %0
  %16 = load i8*, i8** %6, align 8
  %17 = load i8, i8* %16, align 1
  %18 = icmp ne i8 %17, 0
  br i1 %18, label %19, label %66

19:                                               ; preds = %15
  store i32 0, i32* %7, align 4
  br label %20

20:                                               ; preds = %38, %19
  %21 = load i8*, i8** %6, align 8
  %22 = load i8, i8* %21, align 1
  %23 = sext i8 %22 to i32
  %24 = icmp ne i32 %23, 32
  br i1 %24, label %25, label %30

25:                                               ; preds = %20
  %26 = load i8*, i8** %6, align 8
  %27 = load i8, i8* %26, align 1
  %28 = sext i8 %27 to i32
  %29 = icmp ne i32 %28, 0
  br label %30

30:                                               ; preds = %25, %20
  %31 = phi i1 [ false, %20 ], [ %29, %25 ]
  br i1 %31, label %32, label %43

32:                                               ; preds = %30
  %33 = load i8*, i8** %6, align 8
  %34 = load i8, i8* %33, align 1
  %35 = load i32, i32* %7, align 4
  %36 = sext i32 %35 to i64
  %37 = getelementptr inbounds [50 x i8], [50 x i8]* %5, i64 0, i64 %36
  store i8 %34, i8* %37, align 1
  br label %38

38:                                               ; preds = %32
  %39 = load i8*, i8** %6, align 8
  %40 = getelementptr inbounds i8, i8* %39, i32 1
  store i8* %40, i8** %6, align 8
  %41 = load i32, i32* %7, align 4
  %42 = add nsw i32 %41, 1
  store i32 %42, i32* %7, align 4
  br label %20

43:                                               ; preds = %30
  %44 = load i32, i32* %7, align 4
  %45 = sext i32 %44 to i64
  %46 = getelementptr inbounds [50 x i8], [50 x i8]* %5, i64 0, i64 %45
  store i8 0, i8* %46, align 1
  %47 = getelementptr inbounds [50 x i8], [50 x i8]* %5, i64 0, i64 0
  %48 = getelementptr inbounds [150 x i8], [150 x i8]* %3, i64 0, i64 0
  %49 = call i32 @strcmp(i8* %47, i8* %48) #3
  %50 = icmp eq i32 %49, 0
  br i1 %50, label %51, label %54

51:                                               ; preds = %43
  %52 = getelementptr inbounds [150 x i8], [150 x i8]* %4, i64 0, i64 0
  %53 = call i32 (i8*, ...) @printf(i8* getelementptr inbounds ([3 x i8], [3 x i8]* @.str, i64 0, i64 0), i8* %52)
  br label %57

54:                                               ; preds = %43
  %55 = getelementptr inbounds [50 x i8], [50 x i8]* %5, i64 0, i64 0
  %56 = call i32 (i8*, ...) @printf(i8* getelementptr inbounds ([3 x i8], [3 x i8]* @.str, i64 0, i64 0), i8* %55)
  br label %57

57:                                               ; preds = %54, %51
  %58 = load i8*, i8** %6, align 8
  %59 = load i8, i8* %58, align 1
  %60 = icmp ne i8 %59, 0
  br i1 %60, label %61, label %65

61:                                               ; preds = %57
  %62 = call i32 (i8*, ...) @printf(i8* getelementptr inbounds ([2 x i8], [2 x i8]* @.str.1, i64 0, i64 0))
  %63 = load i8*, i8** %6, align 8
  %64 = getelementptr inbounds i8, i8* %63, i32 1
  store i8* %64, i8** %6, align 8
  br label %65

65:                                               ; preds = %61, %57
  br label %15

66:                                               ; preds = %15
  ret i32 0
}

declare dso_local i32 @gets(...) #1

; Function Attrs: nounwind readonly
declare dso_local i32 @strcmp(i8*, i8*) #2

declare dso_local i32 @printf(i8*, ...) #1


!llvm.module.flags = !{!0}
!llvm.ident = !{!1}

!0 = !{i32 1, !"wchar_size", i32 4}
!1 = !{!"clang version 10.0.0-4ubuntu1 "}
